; Function Attrs: nounwind uwtable
define noalias noundef ptr @Abc_NtkDfsWithBoxes(ptr noundef captures(none) %0) local_unnamed_addr #0 {
  %2 = getelementptr inbounds nuw i8, ptr %0, i64 232
  %3 = load ptr, ptr %2, align 8, !tbaa !43
  %.not.i = icmp eq ptr %3, null
  br i1 %.not.i, label %4, label %Abc_NtkIncrementTravId.exit

4:                                                ; preds = %1
  %5 = getelementptr inbounds nuw i8, ptr %0, i64 224
  %6 = getelementptr i8, ptr %0, i64 32
  %.val.i = load ptr, ptr %6, align 8, !tbaa !35
  %7 = getelementptr i8, ptr %.val.i, i64 4
  %.val.val.i = load i32, ptr %7, align 4, !tbaa !41
  %8 = add nsw i32 %.val.val.i, 500
  %9 = load i32, ptr %5, align 8, !tbaa !29
  %.not.i.i.i = icmp slt i32 %9, %8
  br i1 %.not.i.i.i, label %10, label %Vec_IntGrow.exit.i.i

10:                                               ; preds = %4
  %11 = sext i32 %8 to i64
  %12 = shl nsw i64 %11, 2
  %13 = tail call noalias ptr @malloc(i64 noundef %12) #22
  store ptr %13, ptr %2, align 8, !tbaa !30
  store i32 %8, ptr %5, align 8, !tbaa !29
  br label %Vec_IntGrow.exit.i.i

Vec_IntGrow.exit.i.i:                             ; preds = %10, %4
  %14 = phi ptr [ %13, %10 ], [ null, %4 ]
  %15 = icmp sgt i32 %.val.val.i, -500
  br i1 %15, label %.lr.ph.i.i, label %Vec_IntFill.exit.i

.lr.ph.i.i:                                       ; preds = %Vec_IntGrow.exit.i.i
  %16 = zext nneg i32 %8 to i64
  %17 = shl nuw nsw i64 %16, 2
  tail call void @llvm.memset.p0.i64(ptr align 4 %14, i8 0, i64 %17, i1 false), !tbaa !31
  br label %Vec_IntFill.exit.i

Vec_IntFill.exit.i:                               ; preds = %.lr.ph.i.i, %Vec_IntGrow.exit.i.i
  %18 = getelementptr inbounds nuw i8, ptr %0, i64 228
  store i32 %8, ptr %18, align 4, !tbaa !28
  br label %Abc_NtkIncrementTravId.exit

Abc_NtkIncrementTravId.exit:                      ; preds = %1, %Vec_IntFill.exit.i
  %19 = getelementptr inbounds nuw i8, ptr %0, i64 216
  %20 = load i32, ptr %19, align 8, !tbaa !14
  %21 = add nsw i32 %20, 1
  store i32 %21, ptr %19, align 8, !tbaa !14
  %22 = tail call noalias dereferenceable_or_null(16) ptr @malloc(i64 noundef 16) #22
  %23 = getelementptr inbounds nuw i8, ptr %22, i64 4
  store i32 0, ptr %23, align 4, !tbaa !41
  store i32 100, ptr %22, align 8, !tbaa !42
  %24 = tail call noalias dereferenceable_or_null(800) ptr @malloc(i64 noundef 800) #22
  %25 = getelementptr inbounds nuw i8, ptr %22, i64 8
  store ptr %24, ptr %25, align 8, !tbaa !36
  %26 = getelementptr i8, ptr %0, i64 48
  %.val913 = load ptr, ptr %26, align 8, !tbaa !78
  %27 = getelementptr i8, ptr %.val913, i64 4
  %.val9.val14 = load i32, ptr %27, align 4, !tbaa !41
  %28 = icmp sgt i32 %.val9.val14, 0
  br i1 %28, label %.lr.ph, label %.critedge

.lr.ph:                                           ; preds = %Abc_NtkIncrementTravId.exit, %Abc_ObjFanin0Ntk.exit
  %indvars.iv = phi i64 [ %indvars.iv.next, %Abc_ObjFanin0Ntk.exit ], [ 0, %Abc_NtkIncrementTravId.exit ]
  %.val916 = phi ptr [ %.val9, %Abc_ObjFanin0Ntk.exit ], [ %.val913, %Abc_NtkIncrementTravId.exit ]
  %29 = getelementptr i8, ptr %.val916, i64 8
  %.val10.val = load ptr, ptr %29, align 8, !tbaa !36
  %30 = getelementptr inbounds nuw ptr, ptr %.val10.val, i64 %indvars.iv
  %31 = load ptr, ptr %30, align 8, !tbaa !38
  %.val = load ptr, ptr %31, align 8, !tbaa !3
  %32 = getelementptr i8, ptr %31, i64 32
  %.val8 = load ptr, ptr %32, align 8, !tbaa !34
  %33 = getelementptr i8, ptr %.val, i64 32
  %.val.val = load ptr, ptr %33, align 8, !tbaa !35
  %.val8.val = load i32, ptr %.val8, align 4, !tbaa !31
  %34 = getelementptr i8, ptr %.val.val, i64 8
  %.val.val.val = load ptr, ptr %34, align 8, !tbaa !36
  %35 = sext i32 %.val8.val to i64
  %36 = getelementptr inbounds ptr, ptr %.val.val.val, i64 %35
  %37 = load ptr, ptr %36, align 8, !tbaa !38
  %38 = load ptr, ptr %37, align 8, !tbaa !3
  %.val.i11 = load i32, ptr %38, align 8, !tbaa !32
  %.not.i12 = icmp eq i32 %.val.i11, 1
  br i1 %.not.i12, label %39, label %Abc_ObjFanin0Ntk.exit

39:                                               ; preds = %.lr.ph
  %40 = getelementptr i8, ptr %37, i64 32
  %.val4.i = load ptr, ptr %40, align 8, !tbaa !34
  %41 = getelementptr i8, ptr %38, i64 32
  %.val3.val.i = load ptr, ptr %41, align 8, !tbaa !35
  %.val4.val.i = load i32, ptr %.val4.i, align 4, !tbaa !31
  %42 = getelementptr i8, ptr %.val3.val.i, i64 8
  %.val3.val.val.i = load ptr, ptr %42, align 8, !tbaa !36
  %43 = sext i32 %.val4.val.i to i64
  %44 = getelementptr inbounds ptr, ptr %.val3.val.val.i, i64 %43
  %45 = load ptr, ptr %44, align 8, !tbaa !38
  br label %Abc_ObjFanin0Ntk.exit

Abc_ObjFanin0Ntk.exit:                            ; preds = %.lr.ph, %39
  %46 = phi ptr [ %45, %39 ], [ %37, %.lr.ph ]
  tail call void @Abc_NtkDfsWithBoxes_rec(ptr noundef %46, ptr noundef nonnull %22)
  %indvars.iv.next = add nuw nsw i64 %indvars.iv, 1
  %.val9 = load ptr, ptr %26, align 8, !tbaa !78
  %47 = getelementptr i8, ptr %.val9, i64 4
  %.val9.val = load i32, ptr %47, align 4, !tbaa !41
  %48 = sext i32 %.val9.val to i64
  %49 = icmp slt i64 %indvars.iv.next, %48
  br i1 %49, label %.lr.ph, label %.critedge, !llvm.loop !102

.critedge:                                        ; preds = %Abc_ObjFanin0Ntk.exit, %Abc_NtkIncrementTravId.exit
  ret ptr %22
}